target datalayout = "e-m:e-p270:32:32-p271:32:32-p272:64:64-i64:64-i128:128-f80:128-n8:16:32:64-S128"
target triple = "x86_64-pc-linux-gnu"

%struct.Gia_Man_t_ = type { ptr, ptr, i32, i32, i32, i32, ptr, ptr, i32, i32, i32, ptr, ptr, %struct.Vec_Int_t_, %struct.Vec_Int_t_, i32, i32, i32, %struct.Vec_Int_t_, ptr, ptr, ptr, i32, i32, i32, i32, ptr, ptr, ptr, ptr, ptr, i32, i32, ptr, i32, ptr, ptr, ptr, ptr, ptr, ptr, ptr, ptr, ptr, ptr, ptr, ptr, ptr, ptr, ptr, ptr, ptr, ptr, %struct.Vec_Int_t_, %struct.Vec_Int_t_, ptr, ptr, ptr, ptr, ptr, ptr, ptr, ptr, ptr, ptr, ptr, ptr, ptr, ptr, ptr, ptr, ptr, ptr, ptr, ptr, ptr, i32, float, float, ptr, ptr, i32, ptr, ptr, ptr, ptr, ptr, ptr, ptr, ptr, ptr, ptr, ptr, ptr, ptr, ptr, ptr, i64, i64, ptr, ptr, i32, i32, i32, i32, i32, i32, i32, i32, i32, i32, i32, i32, ptr, ptr, ptr, ptr, ptr, ptr, ptr, ptr, i32, i32, i32, ptr, i32, i32, ptr, ptr, ptr, ptr, ptr, ptr, i32, i32, ptr, %struct.Vec_Int_t_, %struct.Vec_Int_t_, %struct.Vec_Int_t_, ptr, ptr, ptr, i32, i32, i32, i32, ptr, ptr, ptr, ptr, ptr }
%struct.Vec_Int_t_ = type { i32, i32, ptr }
%struct.Vec_Str_t_ = type { i32, i32, ptr }

; Function Attrs: inlinehint nounwind uwtable
define internal ptr @Vec_IntEntryP(ptr noundef %0, i32 noundef %1) #3 {
  %3 = alloca ptr, align 8
  %4 = alloca i32, align 4
  store ptr %0, ptr %3, align 8, !tbaa !74
  store i32 %1, ptr %4, align 4, !tbaa !42
  %5 = load ptr, ptr %3, align 8, !tbaa !74
  %6 = getelementptr inbounds nuw %struct.Vec_Int_t_, ptr %5, i32 0, i32 2
  %7 = load ptr, ptr %6, align 8, !tbaa !94
  %8 = load i32, ptr %4, align 4, !tbaa !42
  %9 = sext i32 %8 to i64
  %10 = getelementptr inbounds i32, ptr %7, i64 %9
  ret ptr %10
}

; Function Attrs: inlinehint nounwind uwtable
define internal i32 @Vec_IntEntry(ptr noundef %0, i32 noundef %1) #3 {
  %3 = alloca ptr, align 8
  %4 = alloca i32, align 4
  store ptr %0, ptr %3, align 8, !tbaa !74
  store i32 %1, ptr %4, align 4, !tbaa !42
  %5 = load ptr, ptr %3, align 8, !tbaa !74
  %6 = getelementptr inbounds nuw %struct.Vec_Int_t_, ptr %5, i32 0, i32 2
  %7 = load ptr, ptr %6, align 8, !tbaa !94
  %8 = load i32, ptr %4, align 4, !tbaa !42
  %9 = sext i32 %8 to i64
  %10 = getelementptr inbounds i32, ptr %7, i64 %9
  %11 = load i32, ptr %10, align 4, !tbaa !42
  ret i32 %11
}

; Function Attrs: inlinehint nounwind uwtable
define internal i32 @Vec_IntSize(ptr noundef %0) #3 {
  %2 = alloca ptr, align 8
  store ptr %0, ptr %2, align 8, !tbaa !74
  %3 = load ptr, ptr %2, align 8, !tbaa !74
  %4 = getelementptr inbounds nuw %struct.Vec_Int_t_, ptr %3, i32 0, i32 1
  %5 = load i32, ptr %4, align 4, !tbaa !75
  ret i32 %5
}

; Function Attrs: inlinehint nounwind uwtable
define internal void @Vec_StrWriteEntry(ptr noundef %0, i32 noundef %1, i8 noundef signext %2) #3 {
  %4 = alloca ptr, align 8
  %5 = alloca i32, align 4
  %6 = alloca i8, align 1
  store ptr %0, ptr %4, align 8, !tbaa !89
  store i32 %1, ptr %5, align 4, !tbaa !42
  store i8 %2, ptr %6, align 1, !tbaa !92
  %7 = load i8, ptr %6, align 1, !tbaa !92
  %8 = load ptr, ptr %4, align 8, !tbaa !89
  %9 = getelementptr inbounds nuw %struct.Vec_Str_t_, ptr %8, i32 0, i32 2
  %10 = load ptr, ptr %9, align 8, !tbaa !90
  %11 = load i32, ptr %5, align 4, !tbaa !42
  %12 = sext i32 %11 to i64
  %13 = getelementptr inbounds i8, ptr %10, i64 %12
  store i8 %7, ptr %13, align 1, !tbaa !92
  ret void
}

; Function Attrs: inlinehint nounwind uwtable
define internal ptr @Gia_ObjLutFanins(ptr noundef %0, i32 noundef %1) #3 {
  %3 = alloca ptr, align 8
  %4 = alloca i32, align 4
  store ptr %0, ptr %3, align 8, !tbaa !40
  store i32 %1, ptr %4, align 4, !tbaa !42
  %5 = load ptr, ptr %3, align 8, !tbaa !40
  %6 = getelementptr inbounds nuw %struct.Gia_Man_t_, ptr %5, i32 0, i32 37
  %7 = load ptr, ptr %6, align 8, !tbaa !63
  %8 = load ptr, ptr %3, align 8, !tbaa !40
  %9 = getelementptr inbounds nuw %struct.Gia_Man_t_, ptr %8, i32 0, i32 37
  %10 = load ptr, ptr %9, align 8, !tbaa !63
  %11 = load i32, ptr %4, align 4, !tbaa !42
  %12 = call i32 @Vec_IntEntry(ptr noundef %10, i32 noundef %11)
  %13 = call ptr @Vec_IntEntryP(ptr noundef %7, i32 noundef %12)
  %14 = getelementptr inbounds i32, ptr %13, i64 1
  ret ptr %14
}

; Function Attrs: inlinehint nounwind uwtable
define internal i32 @Gia_ObjLutSize(ptr noundef %0, i32 noundef %1) #3 {
  %3 = alloca ptr, align 8
  %4 = alloca i32, align 4
  store ptr %0, ptr %3, align 8, !tbaa !40
  store i32 %1, ptr %4, align 4, !tbaa !42
  %5 = load ptr, ptr %3, align 8, !tbaa !40
  %6 = getelementptr inbounds nuw %struct.Gia_Man_t_, ptr %5, i32 0, i32 37
  %7 = load ptr, ptr %6, align 8, !tbaa !63
  %8 = load ptr, ptr %3, align 8, !tbaa !40
  %9 = getelementptr inbounds nuw %struct.Gia_Man_t_, ptr %8, i32 0, i32 37
  %10 = load ptr, ptr %9, align 8, !tbaa !63
  %11 = load i32, ptr %4, align 4, !tbaa !42
  %12 = call i32 @Vec_IntEntry(ptr noundef %10, i32 noundef %11)
  %13 = call i32 @Vec_IntEntry(ptr noundef %7, i32 noundef %12)
  ret i32 %13
}

; Function Attrs: inlinehint nounwind uwtable
define internal void @Vec_IntClear(ptr noundef %0) #3 {
  %2 = alloca ptr, align 8
  store ptr %0, ptr %2, align 8, !tbaa !74
  %3 = load ptr, ptr %2, align 8, !tbaa !74
  %4 = getelementptr inbounds nuw %struct.Vec_Int_t_, ptr %3, i32 0, i32 1
  store i32 0, ptr %4, align 4, !tbaa !75
  ret void
}

; Function Attrs: nounwind uwtable
define i32 @Gia_ManComputeOverlap2One(ptr noundef %0, i32 noundef %1, ptr noundef %2, ptr noundef %3) #0 {
  %5 = alloca ptr, align 8
  %6 = alloca i32, align 4
  %7 = alloca ptr, align 8
  %8 = alloca ptr, align 8
  %9 = alloca i32, align 4
  %10 = alloca i32, align 4
  %11 = alloca i32, align 4
  store ptr %0, ptr %5, align 8, !tbaa !40
  store i32 %1, ptr %6, align 4, !tbaa !42
  store ptr %2, ptr %7, align 8, !tbaa !89
  store ptr %3, ptr %8, align 8, !tbaa !74
  call void @llvm.lifetime.start.p0(i64 4, ptr %9) #14
  call void @llvm.lifetime.start.p0(i64 4, ptr %10) #14
  call void @llvm.lifetime.start.p0(i64 4, ptr %11) #14
  %12 = load ptr, ptr %8, align 8, !tbaa !74
  call void @Vec_IntClear(ptr noundef %12)
  store i32 0, ptr %10, align 4, !tbaa !42
  br label %13

13:                                               ; preds = %32, %4
  %14 = load i32, ptr %10, align 4, !tbaa !42
  %15 = load ptr, ptr %5, align 8, !tbaa !40
  %16 = load i32, ptr %6, align 4, !tbaa !42
  %17 = call i32 @Gia_ObjLutSize(ptr noundef %15, i32 noundef %16)
  %18 = icmp slt i32 %14, %17
  br i1 %18, label %19, label %27

19:                                               ; preds = %13
  %20 = load ptr, ptr %5, align 8, !tbaa !40
  %21 = load i32, ptr %6, align 4, !tbaa !42
  %22 = call ptr @Gia_ObjLutFanins(ptr noundef %20, i32 noundef %21)
  %23 = load i32, ptr %10, align 4, !tbaa !42
  %24 = sext i32 %23 to i64
  %25 = getelementptr inbounds i32, ptr %22, i64 %24
  %26 = load i32, ptr %25, align 4, !tbaa !42
  store i32 %26, ptr %9, align 4, !tbaa !42
  br label %27

27:                                               ; preds = %19, %13
  %28 = phi i1 [ false, %13 ], [ true, %19 ]
  br i1 %28, label %29, label %35

29:                                               ; preds = %27
  %30 = load ptr, ptr %7, align 8, !tbaa !89
  %31 = load i32, ptr %9, align 4, !tbaa !42
  call void @Vec_StrWriteEntry(ptr noundef %30, i32 noundef %31, i8 noundef signext 1)
  br label %32

32:                                               ; preds = %29
  %33 = load i32, ptr %10, align 4, !tbaa !42
  %34 = add nsw i32 %33, 1
  store i32 %34, ptr %10, align 4, !tbaa !42
  br label %13, !llvm.loop !95

35:                                               ; preds = %27
  %36 = load ptr, ptr %5, align 8, !tbaa !40
  %37 = load i32, ptr %6, align 4, !tbaa !42
  %38 = load ptr, ptr %7, align 8, !tbaa !89
  %39 = load ptr, ptr %8, align 8, !tbaa !74
  %40 = call i32 @Gia_ManComputeOverlap2One_rec(ptr noundef %36, i32 noundef %37, ptr noundef %38, ptr noundef %39)
  store i32 %40, ptr %11, align 4, !tbaa !42
  store i32 0, ptr %10, align 4, !tbaa !42
  br label %41

41:                                               ; preds = %60, %35
  %42 = load i32, ptr %10, align 4, !tbaa !42
  %43 = load ptr, ptr %5, align 8, !tbaa !40
  %44 = load i32, ptr %6, align 4, !tbaa !42
  %45 = call i32 @Gia_ObjLutSize(ptr noundef %43, i32 noundef %44)
  %46 = icmp slt i32 %42, %45
  br i1 %46, label %47, label %55

47:                                               ; preds = %41
  %48 = load ptr, ptr %5, align 8, !tbaa !40
  %49 = load i32, ptr %6, align 4, !tbaa !42
  %50 = call ptr @Gia_ObjLutFanins(ptr noundef %48, i32 noundef %49)
  %51 = load i32, ptr %10, align 4, !tbaa !42
  %52 = sext i32 %51 to i64
  %53 = getelementptr inbounds i32, ptr %50, i64 %52
  %54 = load i32, ptr %53, align 4, !tbaa !42
  store i32 %54, ptr %9, align 4, !tbaa !42
  br label %55

55:                                               ; preds = %47, %41
  %56 = phi i1 [ false, %41 ], [ true, %47 ]
  br i1 %56, label %57, label %63

57:                                               ; preds = %55
  %58 = load ptr, ptr %7, align 8, !tbaa !89
  %59 = load i32, ptr %9, align 4, !tbaa !42
  call void @Vec_StrWriteEntry(ptr noundef %58, i32 noundef %59, i8 noundef signext 0)
  br label %60

60:                                               ; preds = %57
  %61 = load i32, ptr %10, align 4, !tbaa !42
  %62 = add nsw i32 %61, 1
  store i32 %62, ptr %10, align 4, !tbaa !42
  br label %41, !llvm.loop !96

63:                                               ; preds = %55
  store i32 0, ptr %10, align 4, !tbaa !42
  br label %64

64:                                               ; preds = %78, %63
  %65 = load i32, ptr %10, align 4, !tbaa !42
  %66 = load ptr, ptr %8, align 8, !tbaa !74
  %67 = call i32 @Vec_IntSize(ptr noundef %66)
  %68 = icmp slt i32 %65, %67
  br i1 %68, label %69, label %73

69:                                               ; preds = %64
  %70 = load ptr, ptr %8, align 8, !tbaa !74
  %71 = load i32, ptr %10, align 4, !tbaa !42
  %72 = call i32 @Vec_IntEntry(ptr noundef %70, i32 noundef %71)
  store i32 %72, ptr %9, align 4, !tbaa !42
  br label %73

73:                                               ; preds = %69, %64
  %74 = phi i1 [ false, %64 ], [ true, %69 ]
  br i1 %74, label %75, label %81

75:                                               ; preds = %73
  %76 = load ptr, ptr %7, align 8, !tbaa !89
  %77 = load i32, ptr %9, align 4, !tbaa !42
  call void @Vec_StrWriteEntry(ptr noundef %76, i32 noundef %77, i8 noundef signext 0)
  br label %78

78:                                               ; preds = %75
  %79 = load i32, ptr %10, align 4, !tbaa !42
  %80 = add nsw i32 %79, 1
  store i32 %80, ptr %10, align 4, !tbaa !42
  br label %64, !llvm.loop !97

81:                                               ; preds = %73
  %82 = load i32, ptr %11, align 4, !tbaa !42
  call void @llvm.lifetime.end.p0(i64 4, ptr %11) #14
  call void @llvm.lifetime.end.p0(i64 4, ptr %10) #14
  call void @llvm.lifetime.end.p0(i64 4, ptr %9) #14
  ret i32 %82
}