; Function Attrs: nounwind uwtable
define range(i32 -2147483647, -2147483648) i32 @Gia_ManComputeOverlap2One(ptr noundef %0, i32 noundef %1, ptr noundef %2, ptr noundef initializes((4, 8)) %3) local_unnamed_addr #4 {
  %5 = getelementptr inbounds nuw i8, ptr %3, i64 4
  store i32 0, ptr %5, align 4, !tbaa !54
  %6 = getelementptr i8, ptr %0, i64 264
  %7 = sext i32 %1 to i64
  %.val3543 = load ptr, ptr %6, align 8, !tbaa !46
  %8 = getelementptr i8, ptr %.val3543, i64 8
  %.val35.val44 = load ptr, ptr %8, align 8, !tbaa !47
  %9 = getelementptr inbounds i32, ptr %.val35.val44, i64 %7
  %10 = load i32, ptr %9, align 4, !tbaa !48
  %11 = sext i32 %10 to i64
  %12 = getelementptr inbounds i32, ptr %.val35.val44, i64 %11
  %13 = load i32, ptr %12, align 4, !tbaa !48
  %14 = icmp sgt i32 %13, 0
  br i1 %14, label %.lr.ph, label %.critedge

.lr.ph:                                           ; preds = %4
  %15 = getelementptr i8, ptr %2, i64 8
  br label %16

16:                                               ; preds = %.lr.ph, %16
  %indvars.iv = phi i64 [ 0, %.lr.ph ], [ %indvars.iv.next, %16 ]
  %17 = phi ptr [ %12, %.lr.ph ], [ %27, %16 ]
  %18 = getelementptr inbounds nuw i8, ptr %17, i64 4
  %19 = getelementptr inbounds nuw i32, ptr %18, i64 %indvars.iv
  %20 = load i32, ptr %19, align 4, !tbaa !48
  %.val41 = load ptr, ptr %15, align 8, !tbaa !73
  %21 = sext i32 %20 to i64
  %22 = getelementptr inbounds i8, ptr %.val41, i64 %21
  store i8 1, ptr %22, align 1, !tbaa !75
  %indvars.iv.next = add nuw nsw i64 %indvars.iv, 1
  %.val35 = load ptr, ptr %6, align 8, !tbaa !46
  %23 = getelementptr i8, ptr %.val35, i64 8
  %.val35.val = load ptr, ptr %23, align 8, !tbaa !47
  %24 = getelementptr inbounds i32, ptr %.val35.val, i64 %7
  %25 = load i32, ptr %24, align 4, !tbaa !48
  %26 = sext i32 %25 to i64
  %27 = getelementptr inbounds i32, ptr %.val35.val, i64 %26
  %28 = load i32, ptr %27, align 4, !tbaa !48
  %29 = sext i32 %28 to i64
  %30 = icmp slt i64 %indvars.iv.next, %29
  br i1 %30, label %16, label %.critedge, !llvm.loop !77

.critedge:                                        ; preds = %16, %4
  %31 = tail call i32 @Gia_ManComputeOverlap2One_rec(ptr noundef nonnull %0, i32 noundef %1, ptr noundef %2, ptr noundef %3)
  %.val3446 = load ptr, ptr %6, align 8, !tbaa !46
  %32 = getelementptr i8, ptr %.val3446, i64 8
  %.val34.val47 = load ptr, ptr %32, align 8, !tbaa !47
  %33 = getelementptr inbounds i32, ptr %.val34.val47, i64 %7
  %34 = load i32, ptr %33, align 4, !tbaa !48
  %35 = sext i32 %34 to i64
  %36 = getelementptr inbounds i32, ptr %.val34.val47, i64 %35
  %37 = load i32, ptr %36, align 4, !tbaa !48
  %38 = icmp sgt i32 %37, 0
  br i1 %38, label %.lr.ph49, label %.critedge2.preheader

.lr.ph49:                                         ; preds = %.critedge
  %39 = getelementptr i8, ptr %2, i64 8
  br label %43

.critedge2.preheader:                             ; preds = %43, %.critedge
  %.val3850 = load i32, ptr %5, align 4, !tbaa !54
  %40 = icmp sgt i32 %.val3850, 0
  br i1 %40, label %.lr.ph52, label %.critedge4

.lr.ph52:                                         ; preds = %.critedge2.preheader
  %41 = getelementptr i8, ptr %3, i64 8
  %42 = getelementptr i8, ptr %2, i64 8
  br label %.critedge2

43:                                               ; preds = %.lr.ph49, %43
  %indvars.iv54 = phi i64 [ 0, %.lr.ph49 ], [ %indvars.iv.next55, %43 ]
  %44 = phi ptr [ %36, %.lr.ph49 ], [ %54, %43 ]
  %45 = getelementptr inbounds nuw i8, ptr %44, i64 4
  %46 = getelementptr inbounds nuw i32, ptr %45, i64 %indvars.iv54
  %47 = load i32, ptr %46, align 4, !tbaa !48
  %.val40 = load ptr, ptr %39, align 8, !tbaa !73
  %48 = sext i32 %47 to i64
  %49 = getelementptr inbounds i8, ptr %.val40, i64 %48
  store i8 0, ptr %49, align 1, !tbaa !75
  %indvars.iv.next55 = add nuw nsw i64 %indvars.iv54, 1
  %.val34 = load ptr, ptr %6, align 8, !tbaa !46
  %50 = getelementptr i8, ptr %.val34, i64 8
  %.val34.val = load ptr, ptr %50, align 8, !tbaa !47
  %51 = getelementptr inbounds i32, ptr %.val34.val, i64 %7
  %52 = load i32, ptr %51, align 4, !tbaa !48
  %53 = sext i32 %52 to i64
  %54 = getelementptr inbounds i32, ptr %.val34.val, i64 %53
  %55 = load i32, ptr %54, align 4, !tbaa !48
  %56 = sext i32 %55 to i64
  %57 = icmp slt i64 %indvars.iv.next55, %56
  br i1 %57, label %43, label %.critedge2.preheader, !llvm.loop !78

.critedge2:                                       ; preds = %.lr.ph52, %.critedge2
  %indvars.iv57 = phi i64 [ 0, %.lr.ph52 ], [ %indvars.iv.next58, %.critedge2 ]
  %.val = load ptr, ptr %41, align 8, !tbaa !47
  %58 = getelementptr inbounds nuw i32, ptr %.val, i64 %indvars.iv57
  %59 = load i32, ptr %58, align 4, !tbaa !48
  %.val39 = load ptr, ptr %42, align 8, !tbaa !73
  %60 = sext i32 %59 to i64
  %61 = getelementptr inbounds i8, ptr %.val39, i64 %60
  store i8 0, ptr %61, align 1, !tbaa !75
  %indvars.iv.next58 = add nuw nsw i64 %indvars.iv57, 1
  %.val38 = load i32, ptr %5, align 4, !tbaa !54
  %62 = sext i32 %.val38 to i64
  %63 = icmp slt i64 %indvars.iv.next58, %62
  br i1 %63, label %.critedge2, label %.critedge4, !llvm.loop !79

.critedge4:                                       ; preds = %.critedge2, %.critedge2.preheader
  ret i32 %31
}